; Function Attrs: mustprogress uwtable
define hidden noundef zeroext i1 @_ZNK4cvc58internal23CodatatypeBoundVariableeqERKS1_(ptr noundef nonnull align 8 dereferenceable(24) %this, ptr noundef nonnull align 8 dereferenceable(24) %cbv) local_unnamed_addr #3 align 2 {
entry:
  %0 = load ptr, ptr %this, align 8
  %1 = load ptr, ptr %cbv, align 8
  %2 = load ptr, ptr %0, align 8
  %3 = load ptr, ptr %1, align 8
  %cmp.i = icmp eq ptr %2, %3
  br i1 %cmp.i, label %land.rhs, label %land.end

land.rhs:                                         ; preds = %entry
  %d_index = getelementptr inbounds nuw i8, ptr %this, i64 8
  %d_index4 = getelementptr inbounds nuw i8, ptr %cbv, i64 8
  %call5 = tail call noundef zeroext i1 @_ZNK4cvc58internal7IntegereqERKS1_(ptr noundef nonnull align 8 dereferenceable(16) %d_index, ptr noundef nonnull align 8 dereferenceable(16) %d_index4)
  br label %land.end

land.end:                                         ; preds = %land.rhs, %entry
  %4 = phi i1 [ false, %entry ], [ %call5, %land.rhs ]
  ret i1 %4
}